; Function Attrs: mustprogress uwtable
define void @_ZN7Imf_3_29InputFile12rawPixelDataEiRPKcRi(ptr nocapture noundef nonnull readonly align 8 dereferenceable(16) %this, i32 noundef %firstScanLine, ptr noundef nonnull align 8 dereferenceable(8) %pixelData, ptr noundef nonnull align 4 dereferenceable(4) %pixelDataSize) local_unnamed_addr #3 align 2 personality ptr @__gxx_personality_v0 {
entry:
  %_iex_replace_s = alloca %"class.std::__cxx11::basic_stringstream", align 8
  %_data = getelementptr inbounds i8, ptr %this, i64 8
  %0 = load ptr, ptr %_data, align 8
  %dsFile = getelementptr inbounds i8, ptr %0, i64 120
  %1 = load ptr, ptr %dsFile, align 8
  %tobool.not = icmp eq ptr %1, null
  br i1 %tobool.not, label %if.else, label %if.then

if.then:                                          ; preds = %entry
  %exception = tail call ptr @__cxa_allocate_exception(i64 72) #20
  invoke void @_ZN7Iex_3_26ArgExcC1EPKc(ptr noundef nonnull align 8 dereferenceable(72) %exception, ptr noundef nonnull @.str.14)
          to label %invoke.cont8.invoke unwind label %lpad

lpad:                                             ; preds = %if.then
  %2 = landingpad { ptr, i32 }
          cleanup
          catch ptr @_ZTIN7Iex_3_27BaseExcE
  tail call void @__cxa_free_exception(ptr %exception) #20
  br label %catch.dispatch

lpad2:                                            ; preds = %invoke.cont8.invoke, %if.end9
  %3 = landingpad { ptr, i32 }
          catch ptr @_ZTIN7Iex_3_27BaseExcE
  br label %catch.dispatch

if.else:                                          ; preds = %entry
  %isTiled = getelementptr inbounds i8, ptr %0, i64 100
  %4 = load i8, ptr %isTiled, align 4
  %5 = and i8 %4, 1
  %tobool4.not = icmp eq i8 %5, 0
  br i1 %tobool4.not, label %if.end9, label %if.then5

if.then5:                                         ; preds = %if.else
  %exception6 = tail call ptr @__cxa_allocate_exception(i64 72) #20
  invoke void @_ZN7Iex_3_26ArgExcC1EPKc(ptr noundef nonnull align 8 dereferenceable(72) %exception6, ptr noundef nonnull @.str.15)
          to label %invoke.cont8.invoke unwind label %lpad7

invoke.cont8.invoke:                              ; preds = %if.then, %if.then5
  %6 = phi ptr [ %exception6, %if.then5 ], [ %exception, %if.then ]
  invoke void @__cxa_throw(ptr nonnull %6, ptr nonnull @_ZTIN7Iex_3_26ArgExcE, ptr nonnull @_ZN7Iex_3_26ArgExcD1Ev) #22
          to label %invoke.cont8.cont unwind label %lpad2

invoke.cont8.cont:                                ; preds = %invoke.cont8.invoke
  unreachable

lpad7:                                            ; preds = %if.then5
  %7 = landingpad { ptr, i32 }
          cleanup
          catch ptr @_ZTIN7Iex_3_27BaseExcE
  tail call void @__cxa_free_exception(ptr %exception6) #20
  br label %catch.dispatch

catch.dispatch:                                   ; preds = %lpad7, %lpad2, %lpad
  %.pn = phi { ptr, i32 } [ %3, %lpad2 ], [ %2, %lpad ], [ %7, %lpad7 ]
  %ehselector.slot.0 = extractvalue { ptr, i32 } %.pn, 1
  %8 = tail call i32 @llvm.eh.typeid.for(ptr nonnull @_ZTIN7Iex_3_27BaseExcE) #20
  %matches = icmp eq i32 %ehselector.slot.0, %8
  br i1 %matches, label %catch, label %eh.resume

catch:                                            ; preds = %catch.dispatch
  %exn.slot.0 = extractvalue { ptr, i32 } %.pn, 0
  %9 = tail call ptr @__cxa_begin_catch(ptr %exn.slot.0) #20
  invoke void @_ZNSt7__cxx1118basic_stringstreamIcSt11char_traitsIcESaIcEEC1Ev(ptr noundef nonnull align 8 dereferenceable(128) %_iex_replace_s)
          to label %invoke.cont13 unwind label %lpad12

invoke.cont13:                                    ; preds = %catch
  %add.ptr = getelementptr inbounds i8, ptr %_iex_replace_s, i64 16
  %call = invoke noundef nonnull align 8 dereferenceable(8) ptr @_ZStlsISt11char_traitsIcEERSt13basic_ostreamIcT_ES5_PKc(ptr noundef nonnull align 8 dereferenceable(8) %add.ptr, ptr noundef nonnull @.str.16)
          to label %invoke.cont15 unwind label %lpad14

invoke.cont15:                                    ; preds = %invoke.cont13
  %10 = load ptr, ptr %_data, align 8
  %_streamData.i = getelementptr inbounds i8, ptr %10, i64 248
  %11 = load ptr, ptr %_streamData.i, align 8
  %is.i = getelementptr inbounds i8, ptr %11, i64 40
  %12 = load ptr, ptr %is.i, align 8
  %call.i6 = invoke noundef ptr @_ZNK7Imf_3_27IStream8fileNameEv(ptr noundef nonnull align 8 dereferenceable(40) %12)
          to label %invoke.cont16 unwind label %lpad14

invoke.cont16:                                    ; preds = %invoke.cont15
  %call19 = invoke noundef nonnull align 8 dereferenceable(8) ptr @_ZStlsISt11char_traitsIcEERSt13basic_ostreamIcT_ES5_PKc(ptr noundef nonnull align 8 dereferenceable(8) %call, ptr noundef %call.i6)
          to label %invoke.cont18 unwind label %lpad14

invoke.cont18:                                    ; preds = %invoke.cont16
  %call21 = invoke noundef nonnull align 8 dereferenceable(8) ptr @_ZStlsISt11char_traitsIcEERSt13basic_ostreamIcT_ES5_PKc(ptr noundef nonnull align 8 dereferenceable(8) %call19, ptr noundef nonnull @.str.11)
          to label %invoke.cont20 unwind label %lpad14

invoke.cont20:                                    ; preds = %invoke.cont18
  %vtable = load ptr, ptr %9, align 8
  %vfn = getelementptr inbounds i8, ptr %vtable, i64 16
  %13 = load ptr, ptr %vfn, align 8
  %call22 = call noundef ptr %13(ptr noundef nonnull align 8 dereferenceable(72) %9) #20
  %call24 = invoke noundef nonnull align 8 dereferenceable(8) ptr @_ZStlsISt11char_traitsIcEERSt13basic_ostreamIcT_ES5_PKc(ptr noundef nonnull align 8 dereferenceable(8) %call21, ptr noundef %call22)
          to label %invoke.cont23 unwind label %lpad14

invoke.cont23:                                    ; preds = %invoke.cont20
  %call26 = invoke noundef nonnull align 8 dereferenceable(72) ptr @_ZN7Iex_3_27BaseExc6assignERNSt7__cxx1118basic_stringstreamIcSt11char_traitsIcESaIcEEE(ptr noundef nonnull align 8 dereferenceable(72) %9, ptr noundef nonnull align 8 dereferenceable(128) %_iex_replace_s)
          to label %invoke.cont25 unwind label %lpad14

invoke.cont25:                                    ; preds = %invoke.cont23
  call void @_ZNSt7__cxx1118basic_stringstreamIcSt11char_traitsIcESaIcEED1Ev(ptr noundef nonnull align 8 dereferenceable(128) %_iex_replace_s) #20
  invoke void @__cxa_rethrow() #22
          to label %unreachable unwind label %lpad12

if.end9:                                          ; preds = %if.else
  %sFile = getelementptr inbounds i8, ptr %0, i64 112
  %14 = load ptr, ptr %sFile, align 8
  invoke void @_ZN7Imf_3_217ScanLineInputFile12rawPixelDataEiRPKcRi(ptr noundef nonnull align 8 dereferenceable(24) %14, i32 noundef %firstScanLine, ptr noundef nonnull align 8 dereferenceable(8) %pixelData, ptr noundef nonnull align 4 dereferenceable(4) %pixelDataSize)
          to label %try.cont unwind label %lpad2

lpad12:                                           ; preds = %invoke.cont25, %catch
  %15 = landingpad { ptr, i32 }
          cleanup
  br label %ehcleanup

lpad14:                                           ; preds = %invoke.cont15, %invoke.cont23, %invoke.cont20, %invoke.cont18, %invoke.cont16, %invoke.cont13
  %16 = landingpad { ptr, i32 }
          cleanup
  call void @_ZNSt7__cxx1118basic_stringstreamIcSt11char_traitsIcESaIcEED1Ev(ptr noundef nonnull align 8 dereferenceable(128) %_iex_replace_s) #20
  br label %ehcleanup

ehcleanup:                                        ; preds = %lpad14, %lpad12
  %.pn4 = phi { ptr, i32 } [ %15, %lpad12 ], [ %16, %lpad14 ]
  invoke void @__cxa_end_catch()
          to label %eh.resume unwind label %terminate.lpad

try.cont:                                         ; preds = %if.end9
  ret void

eh.resume:                                        ; preds = %ehcleanup, %catch.dispatch
  %lpad.val30.merged = phi { ptr, i32 } [ %.pn4, %ehcleanup ], [ %.pn, %catch.dispatch ]
  resume { ptr, i32 } %lpad.val30.merged

terminate.lpad:                                   ; preds = %ehcleanup
  %17 = landingpad { ptr, i32 }
          catch ptr null
  %18 = extractvalue { ptr, i32 } %17, 0
  call void @__clang_call_terminate(ptr %18) #21
  unreachable

unreachable:                                      ; preds = %invoke.cont25
  unreachable
}